; Function Attrs: mustprogress nounwind uwtable
define dso_local noundef ptr @_ZNK4node9inspector8protocol15DictionaryValue8getArrayERKNSt7__cxx1112basic_stringIcSt11char_traitsIcESaIcEEE(ptr noundef nonnull align 8 dereferenceable(96) %this, ptr noundef nonnull align 8 dereferenceable(32) %name) local_unnamed_addr #1 align 2 {
entry:
  %m_data.i = getelementptr inbounds i8, ptr %this, i64 16
  %call.i.i = tail call ptr @_ZNKSt10_HashtableINSt7__cxx1112basic_stringIcSt11char_traitsIcESaIcEEESt4pairIKS5_St10unique_ptrIN4node9inspector8protocol5ValueESt14default_deleteISC_EEESaISG_ENSt8__detail10_Select1stESt8equal_toIS5_ESt4hashIS5_ENSI_18_Mod_range_hashingENSI_20_Default_ranged_hashENSI_20_Prime_rehash_policyENSI_17_Hashtable_traitsILb1ELb0ELb1EEEE4findERS7_(ptr noundef nonnull align 8 dereferenceable(56) %m_data.i, ptr noundef nonnull align 8 dereferenceable(32) %name)
  %cmp.i.i = icmp eq ptr %call.i.i, null
  br i1 %cmp.i.i, label %_ZN4node9inspector8protocol9ListValue4castEPNS1_5ValueE.exit, label %_ZNK4node9inspector8protocol15DictionaryValue3getERKNSt7__cxx1112basic_stringIcSt11char_traitsIcESaIcEEE.exit

_ZNK4node9inspector8protocol15DictionaryValue3getERKNSt7__cxx1112basic_stringIcSt11char_traitsIcESaIcEEE.exit: ; preds = %entry
  %second.i = getelementptr inbounds i8, ptr %call.i.i, i64 40
  %0 = load ptr, ptr %second.i, align 8
  %tobool.not.i = icmp eq ptr %0, null
  br i1 %tobool.not.i, label %_ZN4node9inspector8protocol9ListValue4castEPNS1_5ValueE.exit, label %lor.lhs.false.i

lor.lhs.false.i:                                  ; preds = %_ZNK4node9inspector8protocol15DictionaryValue3getERKNSt7__cxx1112basic_stringIcSt11char_traitsIcESaIcEEE.exit
  %m_type.i.i = getelementptr inbounds i8, ptr %0, i64 8
  %1 = load i32, ptr %m_type.i.i, align 8
  %cmp.not.i = icmp eq i32 %1, 7
  %spec.select.i = select i1 %cmp.not.i, ptr %0, ptr null
  br label %_ZN4node9inspector8protocol9ListValue4castEPNS1_5ValueE.exit

_ZN4node9inspector8protocol9ListValue4castEPNS1_5ValueE.exit: ; preds = %entry, %_ZNK4node9inspector8protocol15DictionaryValue3getERKNSt7__cxx1112basic_stringIcSt11char_traitsIcESaIcEEE.exit, %lor.lhs.false.i
  %retval.0.i1 = phi ptr [ null, %_ZNK4node9inspector8protocol15DictionaryValue3getERKNSt7__cxx1112basic_stringIcSt11char_traitsIcESaIcEEE.exit ], [ %spec.select.i, %lor.lhs.false.i ], [ null, %entry ]
  ret ptr %retval.0.i1
}